target datalayout = "e-m:e-p270:32:32-p271:32:32-p272:64:64-i64:64-i128:128-f80:128-n8:16:32:64-S128"
target triple = "x86_64-pc-linux-gnu"

%struct.connectivity_progress = type { ptr, i64 }
%struct.commit = type { %struct.object, i64, ptr, ptr, i32 }
%struct.object = type { i32, %struct.object_id }
%struct.object_id = type { [32 x i8], i32 }

; Function Attrs: nounwind uwtable
define internal void @update_progress(ptr noundef %0) #0 {
  %2 = alloca ptr, align 8
  store ptr %0, ptr %2, align 8, !tbaa !116
  %3 = load ptr, ptr %2, align 8, !tbaa !116
  %4 = getelementptr inbounds nuw %struct.connectivity_progress, ptr %3, i32 0, i32 1
  %5 = load i64, ptr %4, align 8, !tbaa !83
  %6 = add i64 %5, 1
  store i64 %6, ptr %4, align 8, !tbaa !83
  %7 = load ptr, ptr %2, align 8, !tbaa !116
  %8 = getelementptr inbounds nuw %struct.connectivity_progress, ptr %7, i32 0, i32 1
  %9 = load i64, ptr %8, align 8, !tbaa !83
  %10 = and i64 %9, 1023
  %11 = icmp eq i64 %10, 0
  br i1 %11, label %12, label %19

12:                                               ; preds = %1
  %13 = load ptr, ptr %2, align 8, !tbaa !116
  %14 = getelementptr inbounds nuw %struct.connectivity_progress, ptr %13, i32 0, i32 0
  %15 = load ptr, ptr %14, align 8, !tbaa !81
  %16 = load ptr, ptr %2, align 8, !tbaa !116
  %17 = getelementptr inbounds nuw %struct.connectivity_progress, ptr %16, i32 0, i32 1
  %18 = load i64, ptr %17, align 8, !tbaa !83
  call void @display_progress(ptr noundef %15, i64 noundef %18)
  br label %19

19:                                               ; preds = %12, %1
  ret void
}

; Function Attrs: nounwind uwtable
define internal void @mark_object(ptr noundef %0, ptr noundef %1, ptr noundef %2) #0 {
  %4 = alloca ptr, align 8
  %5 = alloca ptr, align 8
  %6 = alloca ptr, align 8
  store ptr %0, ptr %4, align 8, !tbaa !72
  store ptr %1, ptr %5, align 8, !tbaa !70
  store ptr %2, ptr %6, align 8, !tbaa !11
  %7 = load ptr, ptr %6, align 8, !tbaa !11
  call void @update_progress(ptr noundef %7)
  ret void
}

; Function Attrs: nounwind uwtable
define internal void @mark_commit(ptr noundef %0, ptr noundef %1) #0 {
  %3 = alloca ptr, align 8
  %4 = alloca ptr, align 8
  store ptr %0, ptr %3, align 8, !tbaa !95
  store ptr %1, ptr %4, align 8, !tbaa !11
  %5 = load ptr, ptr %3, align 8, !tbaa !95
  %6 = getelementptr inbounds nuw %struct.commit, ptr %5, i32 0, i32 0
  %7 = load ptr, ptr %4, align 8, !tbaa !11
  call void @mark_object(ptr noundef %6, ptr noundef null, ptr noundef %7)
  ret void
}