; Function Attrs: nounwind uwtable
define internal void @mark_commit(ptr readnone captures(none) %0, ptr noundef captures(none) %1) #0 {
  %3 = getelementptr inbounds nuw i8, ptr %1, i64 8
  %4 = load i64, ptr %3, align 8, !tbaa !84
  %5 = add i64 %4, 1
  store i64 %5, ptr %3, align 8, !tbaa !84
  %6 = and i64 %5, 1023
  %7 = icmp eq i64 %6, 0
  br i1 %7, label %8, label %mark_object.exit

8:                                                ; preds = %2
  %9 = load ptr, ptr %1, align 8, !tbaa !81
  tail call void @display_progress(ptr noundef %9, i64 noundef %5) #11
  br label %mark_object.exit

mark_object.exit:                                 ; preds = %2, %8
  ret void
}